; ModuleID = 'source-C-CXX/27/721.c'
source_filename = "source-C-CXX/27/721.c"
target datalayout = "e-m:e-p270:32:32-p271:32:32-p272:64:64-i64:64-f80:128-n8:16:32:64-S128"
target triple = "x86_64-pc-linux-gnu"

@.str = private unnamed_addr constant [3 x i8] c"%s\00", align 1
@.str.1 = private unnamed_addr constant [3 x i8] c"%d\00", align 1
@.str.2 = private unnamed_addr constant [4 x i8] c",%d\00", align 1

; Function Attrs: nofree nounwind sspstrong uwtable
define dso_local void @main() local_unnamed_addr #0 {
  %1 = alloca [30 x i8], align 16
  %2 = getelementptr inbounds [30 x i8], [30 x i8]* %1, i64 0, i64 0
  %3 = getelementptr inbounds [30 x i8], [30 x i8]* %1, i64 0, i64 0
  call void @llvm.lifetime.start.p0i8(i64 30, i8* nonnull %3) #5
  %4 = call i32 (i8*, ...) @__isoc99_scanf(i8* getelementptr inbounds ([3 x i8], [3 x i8]* @.str, i64 0, i64 0), i8* nonnull %3)
  %5 = call i64 @strlen(i8* noundef nonnull %3) #6
  %6 = trunc i64 %5 to i32
  %7 = call i32 (i8*, ...) @printf(i8* nonnull dereferenceable(1) getelementptr inbounds ([3 x i8], [3 x i8]* @.str.1, i64 0, i64 0), i32 %6)
  %8 = icmp sgt i32 %6, 0
  br i1 %8, label %9, label %11

9:                                                ; preds = %0
  %10 = and i64 %5, 4294967295
  call void @llvm.memset.p0i8.i64(i8* nonnull align 16 %2, i8 0, i64 %10, i1 false)
  br label %11

11:                                               ; preds = %9, %0
  %12 = call i32 (i8*, ...) @__isoc99_scanf(i8* getelementptr inbounds ([3 x i8], [3 x i8]* @.str, i64 0, i64 0), i8* nonnull %3)
  %13 = icmp eq i32 %12, -1
  br i1 %13, label %24, label %17

14:                                               ; preds = %22, %17
  %15 = call i32 (i8*, ...) @__isoc99_scanf(i8* getelementptr inbounds ([3 x i8], [3 x i8]* @.str, i64 0, i64 0), i8* nonnull %3)
  %16 = icmp eq i32 %15, -1
  br i1 %16, label %24, label %17, !llvm.loop !5

17:                                               ; preds = %11, %14
  %18 = call i64 @strlen(i8* noundef nonnull %3) #6
  %19 = trunc i64 %18 to i32
  %20 = call i32 (i8*, ...) @printf(i8* nonnull dereferenceable(1) getelementptr inbounds ([4 x i8], [4 x i8]* @.str.2, i64 0, i64 0), i32 %19)
  %21 = icmp sgt i32 %19, 0
  br i1 %21, label %22, label %14

22:                                               ; preds = %17
  %23 = and i64 %18, 4294967295
  call void @llvm.memset.p0i8.i64(i8* nonnull align 16 %2, i8 0, i64 %23, i1 false)
  br label %14

24:                                               ; preds = %14, %11
  call void @llvm.lifetime.end.p0i8(i64 30, i8* nonnull %3) #5
  ret void
}

; Function Attrs: argmemonly mustprogress nofree nosync nounwind willreturn
declare void @llvm.lifetime.start.p0i8(i64 immarg, i8* nocapture) #1

; Function Attrs: nofree nounwind
declare noundef i32 @__isoc99_scanf(i8* nocapture noundef readonly, ...) local_unnamed_addr #2

; Function Attrs: argmemonly mustprogress nofree nounwind readonly willreturn
declare i64 @strlen(i8* nocapture) local_unnamed_addr #3

; Function Attrs: nofree nounwind
declare noundef i32 @printf(i8* nocapture noundef readonly, ...) local_unnamed_addr #2

; Function Attrs: argmemonly mustprogress nofree nosync nounwind willreturn
declare void @llvm.lifetime.end.p0i8(i64 immarg, i8* nocapture) #1

; Function Attrs: argmemonly nofree nounwind willreturn writeonly
declare void @llvm.memset.p0i8.i64(i8* nocapture writeonly, i8, i64, i1 immarg) #4


!llvm.module.flags = !{!0, !1, !2, !3}
!llvm.ident = !{!4}

!0 = !{i32 1, !"wchar_size", i32 4}
!1 = !{i32 7, !"PIC Level", i32 2}
!2 = !{i32 7, !"PIE Level", i32 2}
!3 = !{i32 7, !"uwtable", i32 1}
!4 = !{!"clang version 13.0.0"}
!5 = distinct !{!5, !6}
!6 = !{!"llvm.loop.mustprogress"}
